; Function Attrs: mustprogress nounwind uwtable
define internal void @_ZN12_GLOBAL__N_120InProcessThinBackend4waitEv(ptr dead_on_unwind noalias writable writeonly sret(%"class.llvm::Error") align 8 captures(none) initializes((0, 8)) %0, ptr noundef nonnull align 8 dereferenceable(601) %1) unnamed_addr #0 align 2 {
  %3 = getelementptr inbounds nuw i8, ptr %1, i64 72
  tail call void @_ZN4llvm13StdThreadPool4waitEv(ptr noundef nonnull align 8 dereferenceable(360) %3) #28
  %4 = getelementptr inbounds nuw i8, ptr %1, i64 552
  %5 = load i8, ptr %4, align 8
  %6 = trunc i8 %5 to i1
  br i1 %6, label %7, label %_ZN4llvm12ErrorSuccessD2Ev.exit

7:                                                ; preds = %2
  %8 = getelementptr inbounds nuw i8, ptr %1, i64 544
  %9 = load ptr, ptr %8, align 8
  store ptr null, ptr %8, align 8
  br label %_ZN4llvm12ErrorSuccessD2Ev.exit

_ZN4llvm12ErrorSuccessD2Ev.exit:                  ; preds = %2, %7
  %.sink = phi ptr [ %9, %7 ], [ null, %2 ]
  store ptr %.sink, ptr %0, align 8
  ret void
}